target datalayout = "e-m:e-p270:32:32-p271:32:32-p272:64:64-i64:64-i128:128-f80:128-n8:16:32:64-S128"
target triple = "x86_64-pc-linux-gnu"

%"struct.pxrInternal_v0_24__pxrReserved__::HdsiLegacyDisplayStyleOverrideSceneIndex::OptionalInt" = type { i8, i32 }

; Function Attrs: mustprogress nounwind uwtable
define noundef zeroext i1 @_ZN32pxrInternal_v0_24__pxrReserved__eqERKNS_40HdsiLegacyDisplayStyleOverrideSceneIndex11OptionalIntES3_(ptr noundef nonnull align 4 dereferenceable(8) %0, ptr noundef nonnull align 4 dereferenceable(8) %1) #4 {
  %3 = alloca i1, align 1
  %4 = alloca ptr, align 8
  %5 = alloca ptr, align 8
  store ptr %0, ptr %4, align 8
  store ptr %1, ptr %5, align 8
  %6 = load ptr, ptr %4, align 8
  %7 = getelementptr inbounds nuw %"struct.pxrInternal_v0_24__pxrReserved__::HdsiLegacyDisplayStyleOverrideSceneIndex::OptionalInt", ptr %6, i32 0, i32 0
  %8 = load i8, ptr %7, align 4
  %9 = trunc i8 %8 to i1
  %10 = zext i1 %9 to i32
  %11 = icmp eq i32 %10, 0
  br i1 %11, label %12, label %20

12:                                               ; preds = %2
  %13 = load ptr, ptr %5, align 8
  %14 = getelementptr inbounds nuw %"struct.pxrInternal_v0_24__pxrReserved__::HdsiLegacyDisplayStyleOverrideSceneIndex::OptionalInt", ptr %13, i32 0, i32 0
  %15 = load i8, ptr %14, align 4
  %16 = trunc i8 %15 to i1
  %17 = zext i1 %16 to i32
  %18 = icmp eq i32 %17, 0
  br i1 %18, label %19, label %20

19:                                               ; preds = %12
  store i1 true, ptr %3, align 1
  br label %42

20:                                               ; preds = %12, %2
  %21 = load ptr, ptr %4, align 8
  %22 = getelementptr inbounds nuw %"struct.pxrInternal_v0_24__pxrReserved__::HdsiLegacyDisplayStyleOverrideSceneIndex::OptionalInt", ptr %21, i32 0, i32 0
  %23 = load i8, ptr %22, align 4
  %24 = trunc i8 %23 to i1
  %25 = zext i1 %24 to i32
  %26 = load ptr, ptr %5, align 8
  %27 = getelementptr inbounds nuw %"struct.pxrInternal_v0_24__pxrReserved__::HdsiLegacyDisplayStyleOverrideSceneIndex::OptionalInt", ptr %26, i32 0, i32 0
  %28 = load i8, ptr %27, align 4
  %29 = trunc i8 %28 to i1
  %30 = zext i1 %29 to i32
  %31 = icmp eq i32 %25, %30
  br i1 %31, label %32, label %40

32:                                               ; preds = %20
  %33 = load ptr, ptr %4, align 8
  %34 = getelementptr inbounds nuw %"struct.pxrInternal_v0_24__pxrReserved__::HdsiLegacyDisplayStyleOverrideSceneIndex::OptionalInt", ptr %33, i32 0, i32 1
  %35 = load i32, ptr %34, align 4
  %36 = load ptr, ptr %5, align 8
  %37 = getelementptr inbounds nuw %"struct.pxrInternal_v0_24__pxrReserved__::HdsiLegacyDisplayStyleOverrideSceneIndex::OptionalInt", ptr %36, i32 0, i32 1
  %38 = load i32, ptr %37, align 4
  %39 = icmp eq i32 %35, %38
  br label %40

40:                                               ; preds = %32, %20
  %41 = phi i1 [ false, %20 ], [ %39, %32 ]
  store i1 %41, ptr %3, align 1
  br label %42

42:                                               ; preds = %40, %19
  %43 = load i1, ptr %3, align 1
  ret i1 %43
}