; Function Attrs: mustprogress nofree norecurse nosync nounwind willreturn memory(argmem: read) uwtable
define noundef zeroext i1 @_ZN32pxrInternal_v0_24__pxrReserved__eqERKNS_40HdsiLegacyDisplayStyleOverrideSceneIndex11OptionalIntES3_(ptr nocapture noundef nonnull readonly align 4 dereferenceable(8) %0, ptr nocapture noundef nonnull readonly align 4 dereferenceable(8) %1) local_unnamed_addr #5 {
  %3 = load i8, ptr %0, align 4
  %4 = and i8 %3, 1
  %5 = icmp eq i8 %4, 0
  %.pre = load i8, ptr %1, align 4
  %6 = and i8 %.pre, 1
  %7 = icmp eq i8 %6, 0
  %or.cond = select i1 %5, i1 %7, i1 false
  br i1 %or.cond, label %18, label %8

8:                                                ; preds = %2
  %9 = xor i8 %.pre, %3
  %10 = and i8 %9, 1
  %11 = icmp eq i8 %10, 0
  %12 = getelementptr inbounds nuw i8, ptr %0, i64 4
  %13 = load i32, ptr %12, align 4
  %14 = getelementptr inbounds nuw i8, ptr %1, i64 4
  %15 = load i32, ptr %14, align 4
  %16 = icmp eq i32 %13, %15
  %17 = select i1 %11, i1 %16, i1 false
  br label %18

18:                                               ; preds = %2, %8
  %.0 = phi i1 [ %17, %8 ], [ true, %2 ]
  ret i1 %.0
}